target datalayout = "e-m:e-p270:32:32-p271:32:32-p272:64:64-i64:64-i128:128-f80:128-n8:16:32:64-S128"
target triple = "x86_64-pc-linux-gnu"

%struct.CodeHeapStat = type { ptr, ptr, ptr, ptr, ptr, i64, i64, i64, i8, i32, i32, i32, i32, i32, i32, i32, i32, i32, i32, i32, i32 }

@SegmentedCodeCache = external global i8, align 1
@_ZL6nHeaps = internal global i32 0, align 4
@_ZL17CodeHeapStatArray = internal global [10 x %struct.CodeHeapStat] zeroinitializer, align 16
@.str.23 = private unnamed_addr constant [46 x i8] c"Too many heap segments for current limit(%d).\00", align 1
@_ZL9StatArray = internal global ptr null, align 8
@_ZL8seg_size = internal global i64 0, align 8
@_ZL13log2_seg_size = internal global i32 0, align 4
@_ZL14alloc_granules = internal global i64 0, align 8
@_ZL12granule_size = internal global i64 0, align 8
@_ZL16segment_granules = internal global i8 0, align 1
@_ZL10nBlocks_t1 = internal global i32 0, align 4
@_ZL10nBlocks_t2 = internal global i32 0, align 4
@_ZL13nBlocks_alive = internal global i32 0, align 4
@_ZL12nBlocks_stub = internal global i32 0, align 4
@_ZL9FreeArray = internal global ptr null, align 8
@_ZL16alloc_freeBlocks = internal global i32 0, align 4
@_ZL12TopSizeArray = internal global ptr null, align 8
@_ZL19alloc_topSizeBlocks = internal global i32 0, align 4
@_ZL18used_topSizeBlocks = internal global i32 0, align 4
@_ZL21SizeDistributionArray = internal global ptr null, align 8

; Function Attrs: mustprogress nounwind uwtable
define linkonce_odr hidden noundef i32 @_Z23count_trailing_zeros_64m(i64 noundef %0) #1 comdat {
  %2 = alloca i64, align 8
  store i64 %0, ptr %2, align 8
  %3 = load i64, ptr %2, align 8
  %4 = call i64 @llvm.cttz.i64(i64 %3, i1 true)
  %5 = trunc i64 %4 to i32
  ret i32 %5
}

; Function Attrs: mustprogress nounwind uwtable
define linkonce_odr hidden noundef i32 @_Z20count_trailing_zerosImTnNSt9enable_ifIXcvbsr3std11is_integralIT_EE5valueEiE4typeELi0ETnNS0_IXcvblestS1_Lm8EEiE4typeELi0EEjS1_(i64 noundef %0) #1 comdat {
  %2 = alloca i64, align 8
  store i64 %0, ptr %2, align 8
  %3 = load i64, ptr %2, align 8
  %4 = call noundef i32 @_Z23count_trailing_zeros_64m(i64 noundef %3)
  ret i32 %4
}

; Function Attrs: mustprogress nounwind uwtable
define linkonce_odr hidden noundef i32 @_Z11log2i_exactImTnNSt9enable_ifIXcvbsr3std11is_integralIT_EE5valueEiE4typeELi0EEiS1_(i64 noundef %0) #1 comdat {
  %2 = alloca i64, align 8
  store i64 %0, ptr %2, align 8
  %3 = load i64, ptr %2, align 8
  %4 = call noundef i32 @_Z20count_trailing_zerosImTnNSt9enable_ifIXcvbsr3std11is_integralIT_EE5valueEiE4typeELi0ETnNS0_IXcvblestS1_Lm8EEiE4typeELi0EEjS1_(i64 noundef %3)
  ret i32 %4
}

; Function Attrs: mustprogress nounwind uwtable
define linkonce_odr hidden noundef i32 @_Z10exact_log2l(i64 noundef %0) #1 comdat {
  %2 = alloca i64, align 8
  store i64 %0, ptr %2, align 8
  %3 = load i64, ptr %2, align 8
  %4 = call noundef i32 @_Z11log2i_exactImTnNSt9enable_ifIXcvbsr3std11is_integralIT_EE5valueEiE4typeELi0EEiS1_(i64 noundef %3)
  ret i32 %4
}

; Function Attrs: mustprogress nounwind uwtable
define hidden noundef i32 @_ZN13CodeHeapState13findHeapIndexEP12outputStreamPKc(ptr noundef %0, ptr noundef %1) #1 align 2 {
  %3 = alloca i32, align 4
  %4 = alloca ptr, align 8
  %5 = alloca ptr, align 8
  %6 = alloca i32, align 4
  store ptr %0, ptr %4, align 8
  store ptr %1, ptr %5, align 8
  %7 = load ptr, ptr %5, align 8
  %8 = icmp eq ptr %7, null
  br i1 %8, label %9, label %10

9:                                                ; preds = %2
  store i32 10, ptr %3, align 4
  br label %55

10:                                               ; preds = %2
  %11 = load i8, ptr @SegmentedCodeCache, align 1
  %12 = trunc i8 %11 to i1
  br i1 %12, label %13, label %53

13:                                               ; preds = %10
  store i32 0, ptr %6, align 4
  br label %14

14:                                               ; preds = %37, %13
  %15 = load i32, ptr %6, align 4
  %16 = load i32, ptr @_ZL6nHeaps, align 4
  %17 = icmp ult i32 %15, %16
  br i1 %17, label %18, label %40

18:                                               ; preds = %14
  %19 = load i32, ptr %6, align 4
  %20 = zext i32 %19 to i64
  %21 = getelementptr inbounds [10 x %struct.CodeHeapStat], ptr @_ZL17CodeHeapStatArray, i64 0, i64 %20
  %22 = getelementptr inbounds %struct.CodeHeapStat, ptr %21, i32 0, i32 4
  %23 = load ptr, ptr %22, align 8
  %24 = icmp ne ptr %23, null
  br i1 %24, label %25, label %36

25:                                               ; preds = %18
  %26 = load ptr, ptr %5, align 8
  %27 = load i32, ptr %6, align 4
  %28 = zext i32 %27 to i64
  %29 = getelementptr inbounds [10 x %struct.CodeHeapStat], ptr @_ZL17CodeHeapStatArray, i64 0, i64 %28
  %30 = getelementptr inbounds %struct.CodeHeapStat, ptr %29, i32 0, i32 4
  %31 = load ptr, ptr %30, align 8
  %32 = call i32 @strcmp(ptr noundef %26, ptr noundef %31) #8
  %33 = icmp eq i32 %32, 0
  br i1 %33, label %34, label %36

34:                                               ; preds = %25
  %35 = load i32, ptr %6, align 4
  store i32 %35, ptr %3, align 4
  br label %55

36:                                               ; preds = %25, %18
  br label %37

37:                                               ; preds = %36
  %38 = load i32, ptr %6, align 4
  %39 = add i32 %38, 1
  store i32 %39, ptr %6, align 4
  br label %14, !llvm.loop !6

40:                                               ; preds = %14
  %41 = load i32, ptr @_ZL6nHeaps, align 4
  %42 = icmp eq i32 %41, 10
  br i1 %42, label %43, label %45

43:                                               ; preds = %40
  %44 = load ptr, ptr %4, align 8
  call void (ptr, ptr, ...) @_ZN12outputStream8print_crEPKcz(ptr noundef nonnull align 8 dereferenceable(56) %44, ptr noundef @.str.23, i32 noundef 10)
  store i32 10, ptr %3, align 4
  br label %55

45:                                               ; preds = %40
  %46 = load ptr, ptr %5, align 8
  %47 = load i32, ptr @_ZL6nHeaps, align 4
  %48 = zext i32 %47 to i64
  %49 = getelementptr inbounds [10 x %struct.CodeHeapStat], ptr @_ZL17CodeHeapStatArray, i64 0, i64 %48
  %50 = getelementptr inbounds %struct.CodeHeapStat, ptr %49, i32 0, i32 4
  store ptr %46, ptr %50, align 8
  %51 = load i32, ptr @_ZL6nHeaps, align 4
  %52 = add i32 %51, 1
  store i32 %52, ptr @_ZL6nHeaps, align 4
  store i32 %51, ptr %3, align 4
  br label %55

53:                                               ; preds = %10
  store i32 1, ptr @_ZL6nHeaps, align 4
  %54 = load ptr, ptr %5, align 8
  store ptr %54, ptr getelementptr inbounds (%struct.CodeHeapStat, ptr @_ZL17CodeHeapStatArray, i32 0, i32 4), align 16
  store i32 0, ptr %3, align 4
  br label %55

55:                                               ; preds = %53, %45, %43, %34, %9
  %56 = load i32, ptr %3, align 4
  ret i32 %56
}

; Function Attrs: mustprogress nounwind uwtable
define hidden void @_ZN13CodeHeapState19get_HeapStatGlobalsEP12outputStreamPKc(ptr noundef %0, ptr noundef %1) #1 align 2 {
  %3 = alloca ptr, align 8
  %4 = alloca ptr, align 8
  %5 = alloca i32, align 4
  store ptr %0, ptr %3, align 8
  store ptr %1, ptr %4, align 8
  %6 = load ptr, ptr %3, align 8
  %7 = load ptr, ptr %4, align 8
  %8 = call noundef i32 @_ZN13CodeHeapState13findHeapIndexEP12outputStreamPKc(ptr noundef %6, ptr noundef %7)
  store i32 %8, ptr %5, align 4
  %9 = load i32, ptr %5, align 4
  %10 = icmp ult i32 %9, 10
  br i1 %10, label %11, label %97

11:                                               ; preds = %2
  %12 = load i32, ptr %5, align 4
  %13 = zext i32 %12 to i64
  %14 = getelementptr inbounds [10 x %struct.CodeHeapStat], ptr @_ZL17CodeHeapStatArray, i64 0, i64 %13
  %15 = getelementptr inbounds %struct.CodeHeapStat, ptr %14, i32 0, i32 0
  %16 = load ptr, ptr %15, align 8
  store ptr %16, ptr @_ZL9StatArray, align 8
  %17 = load i32, ptr %5, align 4
  %18 = zext i32 %17 to i64
  %19 = getelementptr inbounds [10 x %struct.CodeHeapStat], ptr @_ZL17CodeHeapStatArray, i64 0, i64 %18
  %20 = getelementptr inbounds %struct.CodeHeapStat, ptr %19, i32 0, i32 5
  %21 = load i64, ptr %20, align 8
  store i64 %21, ptr @_ZL8seg_size, align 8
  %22 = load i64, ptr @_ZL8seg_size, align 8
  %23 = icmp eq i64 %22, 0
  br i1 %23, label %24, label %25

24:                                               ; preds = %11
  br label %28

25:                                               ; preds = %11
  %26 = load i64, ptr @_ZL8seg_size, align 8
  %27 = call noundef i32 @_Z10exact_log2l(i64 noundef %26)
  br label %28

28:                                               ; preds = %25, %24
  %29 = phi i32 [ 0, %24 ], [ %27, %25 ]
  store i32 %29, ptr @_ZL13log2_seg_size, align 4
  %30 = load i32, ptr %5, align 4
  %31 = zext i32 %30 to i64
  %32 = getelementptr inbounds [10 x %struct.CodeHeapStat], ptr @_ZL17CodeHeapStatArray, i64 0, i64 %31
  %33 = getelementptr inbounds %struct.CodeHeapStat, ptr %32, i32 0, i32 6
  %34 = load i64, ptr %33, align 8
  store i64 %34, ptr @_ZL14alloc_granules, align 8
  %35 = load i32, ptr %5, align 4
  %36 = zext i32 %35 to i64
  %37 = getelementptr inbounds [10 x %struct.CodeHeapStat], ptr @_ZL17CodeHeapStatArray, i64 0, i64 %36
  %38 = getelementptr inbounds %struct.CodeHeapStat, ptr %37, i32 0, i32 7
  %39 = load i64, ptr %38, align 8
  store i64 %39, ptr @_ZL12granule_size, align 8
  %40 = load i32, ptr %5, align 4
  %41 = zext i32 %40 to i64
  %42 = getelementptr inbounds [10 x %struct.CodeHeapStat], ptr @_ZL17CodeHeapStatArray, i64 0, i64 %41
  %43 = getelementptr inbounds %struct.CodeHeapStat, ptr %42, i32 0, i32 8
  %44 = load i8, ptr %43, align 8
  %45 = trunc i8 %44 to i1
  %46 = zext i1 %45 to i8
  store i8 %46, ptr @_ZL16segment_granules, align 1
  %47 = load i32, ptr %5, align 4
  %48 = zext i32 %47 to i64
  %49 = getelementptr inbounds [10 x %struct.CodeHeapStat], ptr @_ZL17CodeHeapStatArray, i64 0, i64 %48
  %50 = getelementptr inbounds %struct.CodeHeapStat, ptr %49, i32 0, i32 9
  %51 = load i32, ptr %50, align 4
  store i32 %51, ptr @_ZL10nBlocks_t1, align 4
  %52 = load i32, ptr %5, align 4
  %53 = zext i32 %52 to i64
  %54 = getelementptr inbounds [10 x %struct.CodeHeapStat], ptr @_ZL17CodeHeapStatArray, i64 0, i64 %53
  %55 = getelementptr inbounds %struct.CodeHeapStat, ptr %54, i32 0, i32 10
  %56 = load i32, ptr %55, align 8
  store i32 %56, ptr @_ZL10nBlocks_t2, align 4
  %57 = load i32, ptr %5, align 4
  %58 = zext i32 %57 to i64
  %59 = getelementptr inbounds [10 x %struct.CodeHeapStat], ptr @_ZL17CodeHeapStatArray, i64 0, i64 %58
  %60 = getelementptr inbounds %struct.CodeHeapStat, ptr %59, i32 0, i32 11
  %61 = load i32, ptr %60, align 4
  store i32 %61, ptr @_ZL13nBlocks_alive, align 4
  %62 = load i32, ptr %5, align 4
  %63 = zext i32 %62 to i64
  %64 = getelementptr inbounds [10 x %struct.CodeHeapStat], ptr @_ZL17CodeHeapStatArray, i64 0, i64 %63
  %65 = getelementptr inbounds %struct.CodeHeapStat, ptr %64, i32 0, i32 14
  %66 = load i32, ptr %65, align 8
  store i32 %66, ptr @_ZL12nBlocks_stub, align 4
  %67 = load i32, ptr %5, align 4
  %68 = zext i32 %67 to i64
  %69 = getelementptr inbounds [10 x %struct.CodeHeapStat], ptr @_ZL17CodeHeapStatArray, i64 0, i64 %68
  %70 = getelementptr inbounds %struct.CodeHeapStat, ptr %69, i32 0, i32 1
  %71 = load ptr, ptr %70, align 8
  store ptr %71, ptr @_ZL9FreeArray, align 8
  %72 = load i32, ptr %5, align 4
  %73 = zext i32 %72 to i64
  %74 = getelementptr inbounds [10 x %struct.CodeHeapStat], ptr @_ZL17CodeHeapStatArray, i64 0, i64 %73
  %75 = getelementptr inbounds %struct.CodeHeapStat, ptr %74, i32 0, i32 15
  %76 = load i32, ptr %75, align 4
  store i32 %76, ptr @_ZL16alloc_freeBlocks, align 4
  %77 = load i32, ptr %5, align 4
  %78 = zext i32 %77 to i64
  %79 = getelementptr inbounds [10 x %struct.CodeHeapStat], ptr @_ZL17CodeHeapStatArray, i64 0, i64 %78
  %80 = getelementptr inbounds %struct.CodeHeapStat, ptr %79, i32 0, i32 2
  %81 = load ptr, ptr %80, align 8
  store ptr %81, ptr @_ZL12TopSizeArray, align 8
  %82 = load i32, ptr %5, align 4
  %83 = zext i32 %82 to i64
  %84 = getelementptr inbounds [10 x %struct.CodeHeapStat], ptr @_ZL17CodeHeapStatArray, i64 0, i64 %83
  %85 = getelementptr inbounds %struct.CodeHeapStat, ptr %84, i32 0, i32 16
  %86 = load i32, ptr %85, align 8
  store i32 %86, ptr @_ZL19alloc_topSizeBlocks, align 4
  %87 = load i32, ptr %5, align 4
  %88 = zext i32 %87 to i64
  %89 = getelementptr inbounds [10 x %struct.CodeHeapStat], ptr @_ZL17CodeHeapStatArray, i64 0, i64 %88
  %90 = getelementptr inbounds %struct.CodeHeapStat, ptr %89, i32 0, i32 17
  %91 = load i32, ptr %90, align 4
  store i32 %91, ptr @_ZL18used_topSizeBlocks, align 4
  %92 = load i32, ptr %5, align 4
  %93 = zext i32 %92 to i64
  %94 = getelementptr inbounds [10 x %struct.CodeHeapStat], ptr @_ZL17CodeHeapStatArray, i64 0, i64 %93
  %95 = getelementptr inbounds %struct.CodeHeapStat, ptr %94, i32 0, i32 3
  %96 = load ptr, ptr %95, align 8
  store ptr %96, ptr @_ZL21SizeDistributionArray, align 8
  br label %98

97:                                               ; preds = %2
  store ptr null, ptr @_ZL9StatArray, align 8
  store i64 0, ptr @_ZL8seg_size, align 8
  store i32 0, ptr @_ZL13log2_seg_size, align 4
  store i64 0, ptr @_ZL14alloc_granules, align 8
  store i64 0, ptr @_ZL12granule_size, align 8
  store i8 0, ptr @_ZL16segment_granules, align 1
  store i32 0, ptr @_ZL10nBlocks_t1, align 4
  store i32 0, ptr @_ZL10nBlocks_t2, align 4
  store i32 0, ptr @_ZL13nBlocks_alive, align 4
  store i32 0, ptr @_ZL12nBlocks_stub, align 4
  store ptr null, ptr @_ZL9FreeArray, align 8
  store i32 0, ptr @_ZL16alloc_freeBlocks, align 4
  store ptr null, ptr @_ZL12TopSizeArray, align 8
  store i32 0, ptr @_ZL19alloc_topSizeBlocks, align 4
  store i32 0, ptr @_ZL18used_topSizeBlocks, align 4
  store ptr null, ptr @_ZL21SizeDistributionArray, align 8
  br label %98

98:                                               ; preds = %97, %28
  ret void
}