; Function Attrs: mustprogress nounwind uwtable
define hidden void @_ZN13CodeHeapState19get_HeapStatGlobalsEP12outputStreamPKc(ptr noundef %0, ptr noundef %1) local_unnamed_addr #1 align 2 {
  %3 = icmp eq ptr %1, null
  br i1 %3, label %_ZN13CodeHeapState13findHeapIndexEP12outputStreamPKc.exit.thread, label %4

4:                                                ; preds = %2
  %5 = load i8, ptr @SegmentedCodeCache, align 1
  %6 = trunc i8 %5 to i1
  br i1 %6, label %.preheader.i, label %_ZN13CodeHeapState13findHeapIndexEP12outputStreamPKc.exit.thread19

.preheader.i:                                     ; preds = %4
  %7 = load i32, ptr @_ZL6nHeaps, align 4
  %.not17.i = icmp eq i32 %7, 0
  br i1 %.not17.i, label %._crit_edge.thread.i, label %.lr.ph.preheader.i

.lr.ph.preheader.i:                               ; preds = %.preheader.i
  %wide.trip.count.i = zext i32 %7 to i64
  br label %.lr.ph.i

.lr.ph.i:                                         ; preds = %13, %.lr.ph.preheader.i
  %indvars.iv.i = phi i64 [ 0, %.lr.ph.preheader.i ], [ %indvars.iv.next.i, %13 ]
  %8 = getelementptr inbounds [10 x %struct.CodeHeapStat], ptr @_ZL17CodeHeapStatArray, i64 0, i64 %indvars.iv.i, i32 4
  %9 = load ptr, ptr %8, align 8
  %.not.i = icmp eq ptr %9, null
  br i1 %.not.i, label %13, label %10

10:                                               ; preds = %.lr.ph.i
  %11 = tail call i32 @strcmp(ptr noundef nonnull dereferenceable(1) %1, ptr noundef nonnull dereferenceable(1) %9) #11
  %12 = icmp eq i32 %11, 0
  br i1 %12, label %.loopexit.loopexit.i, label %13

13:                                               ; preds = %10, %.lr.ph.i
  %indvars.iv.next.i = add nuw nsw i64 %indvars.iv.i, 1
  %exitcond.not.i = icmp eq i64 %indvars.iv.next.i, %wide.trip.count.i
  br i1 %exitcond.not.i, label %._crit_edge.i, label %.lr.ph.i, !llvm.loop !6

._crit_edge.i:                                    ; preds = %13
  %14 = icmp eq i32 %7, 10
  br i1 %14, label %15, label %._crit_edge.thread.i

15:                                               ; preds = %._crit_edge.i
  tail call void (ptr, ptr, ...) @_ZN12outputStream8print_crEPKcz(ptr noundef nonnull align 8 dereferenceable(56) %0, ptr noundef nonnull @.str.23, i32 noundef 10) #12
  br label %_ZN13CodeHeapState13findHeapIndexEP12outputStreamPKc.exit.thread

._crit_edge.thread.i:                             ; preds = %.preheader.i, %._crit_edge.i
  %.pre-phi = phi i64 [ %wide.trip.count.i, %._crit_edge.i ], [ 0, %.preheader.i ]
  %16 = getelementptr inbounds [10 x %struct.CodeHeapStat], ptr @_ZL17CodeHeapStatArray, i64 0, i64 %.pre-phi, i32 4
  store ptr %1, ptr %16, align 8
  %17 = add i32 %7, 1
  store i32 %17, ptr @_ZL6nHeaps, align 4
  br label %_ZN13CodeHeapState13findHeapIndexEP12outputStreamPKc.exit

_ZN13CodeHeapState13findHeapIndexEP12outputStreamPKc.exit.thread19: ; preds = %4
  store i32 1, ptr @_ZL6nHeaps, align 4
  store ptr %1, ptr getelementptr inbounds (i8, ptr @_ZL17CodeHeapStatArray, i64 32), align 16
  br label %20

.loopexit.loopexit.i:                             ; preds = %10
  %18 = trunc nuw i64 %indvars.iv.i to i32
  br label %_ZN13CodeHeapState13findHeapIndexEP12outputStreamPKc.exit

_ZN13CodeHeapState13findHeapIndexEP12outputStreamPKc.exit: ; preds = %._crit_edge.thread.i, %.loopexit.loopexit.i
  %.010.i = phi i32 [ %7, %._crit_edge.thread.i ], [ %18, %.loopexit.loopexit.i ]
  %19 = icmp ult i32 %.010.i, 10
  br i1 %19, label %20, label %_ZN13CodeHeapState13findHeapIndexEP12outputStreamPKc.exit.thread

20:                                               ; preds = %_ZN13CodeHeapState13findHeapIndexEP12outputStreamPKc.exit.thread19, %_ZN13CodeHeapState13findHeapIndexEP12outputStreamPKc.exit
  %.010.i21 = phi i32 [ 0, %_ZN13CodeHeapState13findHeapIndexEP12outputStreamPKc.exit.thread19 ], [ %.010.i, %_ZN13CodeHeapState13findHeapIndexEP12outputStreamPKc.exit ]
  %21 = zext nneg i32 %.010.i21 to i64
  %22 = getelementptr inbounds [10 x %struct.CodeHeapStat], ptr @_ZL17CodeHeapStatArray, i64 0, i64 %21
  %23 = load ptr, ptr %22, align 8
  store ptr %23, ptr @_ZL9StatArray, align 8
  %24 = getelementptr inbounds i8, ptr %22, i64 40
  %25 = load i64, ptr %24, align 8
  store i64 %25, ptr @_ZL8seg_size, align 8
  %26 = icmp eq i64 %25, 0
  %27 = tail call range(i64 0, 65) i64 @llvm.cttz.i64(i64 %25, i1 true)
  %28 = trunc nuw nsw i64 %27 to i32
  %29 = select i1 %26, i32 0, i32 %28
  store i32 %29, ptr @_ZL13log2_seg_size, align 4
  %30 = getelementptr inbounds i8, ptr %22, i64 48
  %31 = load i64, ptr %30, align 8
  store i64 %31, ptr @_ZL14alloc_granules, align 8
  %32 = getelementptr inbounds i8, ptr %22, i64 56
  %33 = load i64, ptr %32, align 8
  store i64 %33, ptr @_ZL12granule_size, align 8
  %34 = getelementptr inbounds i8, ptr %22, i64 64
  %35 = load i8, ptr %34, align 8
  %36 = and i8 %35, 1
  store i8 %36, ptr @_ZL16segment_granules, align 1
  %37 = getelementptr inbounds i8, ptr %22, i64 68
  %38 = load i32, ptr %37, align 4
  store i32 %38, ptr @_ZL10nBlocks_t1, align 4
  %39 = getelementptr inbounds i8, ptr %22, i64 72
  %40 = load i32, ptr %39, align 8
  store i32 %40, ptr @_ZL10nBlocks_t2, align 4
  %41 = getelementptr inbounds i8, ptr %22, i64 76
  %42 = load i32, ptr %41, align 4
  store i32 %42, ptr @_ZL13nBlocks_alive, align 4
  %43 = getelementptr inbounds i8, ptr %22, i64 88
  %44 = load i32, ptr %43, align 8
  store i32 %44, ptr @_ZL12nBlocks_stub, align 4
  %45 = getelementptr inbounds i8, ptr %22, i64 8
  %46 = load ptr, ptr %45, align 8
  store ptr %46, ptr @_ZL9FreeArray, align 8
  %47 = getelementptr inbounds i8, ptr %22, i64 92
  %48 = load i32, ptr %47, align 4
  store i32 %48, ptr @_ZL16alloc_freeBlocks, align 4
  %49 = getelementptr inbounds i8, ptr %22, i64 16
  %50 = load ptr, ptr %49, align 8
  store ptr %50, ptr @_ZL12TopSizeArray, align 8
  %51 = getelementptr inbounds i8, ptr %22, i64 96
  %52 = load i32, ptr %51, align 8
  store i32 %52, ptr @_ZL19alloc_topSizeBlocks, align 4
  %53 = getelementptr inbounds i8, ptr %22, i64 100
  %54 = load i32, ptr %53, align 4
  store i32 %54, ptr @_ZL18used_topSizeBlocks, align 4
  %55 = getelementptr inbounds i8, ptr %22, i64 24
  %56 = load ptr, ptr %55, align 8
  br label %57

_ZN13CodeHeapState13findHeapIndexEP12outputStreamPKc.exit.thread: ; preds = %2, %15, %_ZN13CodeHeapState13findHeapIndexEP12outputStreamPKc.exit
  store ptr null, ptr @_ZL9StatArray, align 8
  store i64 0, ptr @_ZL8seg_size, align 8
  store i32 0, ptr @_ZL13log2_seg_size, align 4
  store i64 0, ptr @_ZL14alloc_granules, align 8
  store i64 0, ptr @_ZL12granule_size, align 8
  store i8 0, ptr @_ZL16segment_granules, align 1
  store i32 0, ptr @_ZL10nBlocks_t1, align 4
  store i32 0, ptr @_ZL10nBlocks_t2, align 4
  store i32 0, ptr @_ZL13nBlocks_alive, align 4
  store i32 0, ptr @_ZL12nBlocks_stub, align 4
  store ptr null, ptr @_ZL9FreeArray, align 8
  store i32 0, ptr @_ZL16alloc_freeBlocks, align 4
  store ptr null, ptr @_ZL12TopSizeArray, align 8
  store i32 0, ptr @_ZL19alloc_topSizeBlocks, align 4
  store i32 0, ptr @_ZL18used_topSizeBlocks, align 4
  br label %57

57:                                               ; preds = %_ZN13CodeHeapState13findHeapIndexEP12outputStreamPKc.exit.thread, %20
  %storemerge = phi ptr [ null, %_ZN13CodeHeapState13findHeapIndexEP12outputStreamPKc.exit.thread ], [ %56, %20 ]
  store ptr %storemerge, ptr @_ZL21SizeDistributionArray, align 8
  ret void
}